target datalayout = "e-m:e-p270:32:32-p271:32:32-p272:64:64-i64:64-i128:128-f80:128-n8:16:32:64-S128"
target triple = "x86_64-pc-linux-gnu"

%"class.std::__cxx11::basic_string" = type { %"struct.std::__cxx11::basic_string<char>::_Alloc_hider", i64, %union.anon }
%"struct.std::__cxx11::basic_string<char>::_Alloc_hider" = type { ptr }
%union.anon = type { i64, [8 x i8] }
%"class.net::CryptoHandshakeMessage" = type { i32, %"class.std::map", i64, %"class.std::unique_ptr.16" }
%"class.std::map" = type { %"class.std::_Rb_tree" }
%"class.std::_Rb_tree" = type { %"struct.std::_Rb_tree<unsigned int, std::pair<const unsigned int, std::__cxx11::basic_string<char>>, std::_Select1st<std::pair<const unsigned int, std::__cxx11::basic_string<char>>>, std::less<unsigned int>>::_Rb_tree_impl" }
%"struct.std::_Rb_tree<unsigned int, std::pair<const unsigned int, std::__cxx11::basic_string<char>>, std::_Select1st<std::pair<const unsigned int, std::__cxx11::basic_string<char>>>, std::less<unsigned int>>::_Rb_tree_impl" = type { [8 x i8], %"struct.std::_Rb_tree_header" }
%"struct.std::_Rb_tree_header" = type { %"struct.std::_Rb_tree_node_base", i64 }
%"struct.std::_Rb_tree_node_base" = type { i32, ptr, ptr, ptr }
%"class.std::unique_ptr.16" = type { %"struct.std::__uniq_ptr_data.17" }
%"struct.std::__uniq_ptr_data.17" = type { %"class.std::__uniq_ptr_impl.18" }
%"class.std::__uniq_ptr_impl.18" = type { %"class.std::tuple.19" }
%"class.std::tuple.19" = type { %"struct.std::_Tuple_impl.20" }
%"struct.std::_Tuple_impl.20" = type { %"struct.std::_Head_base.23" }
%"struct.std::_Head_base.23" = type { ptr }
%"struct.std::_Vector_base.25" = type { %"struct.std::_Vector_base<net::QuicVersion, std::allocator<net::QuicVersion>>::_Vector_impl" }
%"struct.std::_Vector_base<net::QuicVersion, std::allocator<net::QuicVersion>>::_Vector_impl" = type { %"struct.std::_Vector_base<net::QuicVersion, std::allocator<net::QuicVersion>>::_Vector_impl_data" }
%"struct.std::_Vector_base<net::QuicVersion, std::allocator<net::QuicVersion>>::_Vector_impl_data" = type { ptr, ptr, ptr }

@.str.5 = private unnamed_addr constant [8 x i8] c"Bad tag\00", align 1
@.str.7 = private unnamed_addr constant [26 x i8] c"Downgrade attack detected\00", align 1
@.str.8 = private unnamed_addr constant [34 x i8] c"client hello missing version list\00", align 1

; Function Attrs: mustprogress nounwind uwtable
define linkonce_odr noundef i64 @_ZNSt11char_traitsIcE6lengthEPKc(ptr noundef %0) #3 comdat align 2 {
  %2 = alloca ptr, align 8
  store ptr %0, ptr %2, align 8, !tbaa !30
  %3 = load ptr, ptr %2, align 8, !tbaa !30
  %4 = call i64 @strlen(ptr noundef %3) #13
  ret i64 %4
}

; Function Attrs: mustprogress nounwind uwtable
define available_externally noundef i64 @_ZNKSt7__cxx1112basic_stringIcSt11char_traitsIcESaIcEE4sizeEv(ptr noundef nonnull align 8 dereferenceable(32) %0) #3 align 2 {
  %2 = alloca ptr, align 8
  store ptr %0, ptr %2, align 8, !tbaa !8
  %3 = load ptr, ptr %2, align 8
  %4 = getelementptr inbounds nuw %"class.std::__cxx11::basic_string", ptr %3, i32 0, i32 1
  %5 = load i64, ptr %4, align 8, !tbaa !33
  ret i64 %5
}

; Function Attrs: mustprogress uwtable
define available_externally noundef nonnull align 8 dereferenceable(32) ptr @_ZNSt7__cxx1112basic_stringIcSt11char_traitsIcESaIcEE6assignEPKc(ptr noundef nonnull align 8 dereferenceable(32) %0, ptr noundef %1) #0 align 2 {
  %3 = alloca ptr, align 8
  %4 = alloca ptr, align 8
  store ptr %0, ptr %3, align 8, !tbaa !8
  store ptr %1, ptr %4, align 8, !tbaa !30
  %5 = load ptr, ptr %3, align 8
  %6 = call noundef i64 @_ZNKSt7__cxx1112basic_stringIcSt11char_traitsIcESaIcEE4sizeEv(ptr noundef nonnull align 8 dereferenceable(32) %5) #13
  %7 = load ptr, ptr %4, align 8, !tbaa !30
  %8 = load ptr, ptr %4, align 8, !tbaa !30
  %9 = call noundef i64 @_ZNSt11char_traitsIcE6lengthEPKc(ptr noundef %8)
  %10 = call noundef nonnull align 8 dereferenceable(32) ptr @_ZNSt7__cxx1112basic_stringIcSt11char_traitsIcESaIcEE10_M_replaceEmmPKcm(ptr noundef nonnull align 8 dereferenceable(32) %5, i64 noundef 0, i64 noundef %6, ptr noundef %7, i64 noundef %9)
  ret ptr %10
}

; Function Attrs: mustprogress nounwind uwtable
define linkonce_odr noundef nonnull align 4 dereferenceable(4) ptr @_ZNKSt6vectorIN3net11QuicVersionESaIS1_EEixEm(ptr noundef nonnull align 8 dereferenceable(24) %0, i64 noundef %1) #3 comdat align 2 {
  %3 = alloca ptr, align 8
  %4 = alloca i64, align 8
  store ptr %0, ptr %3, align 8, !tbaa !71
  store i64 %1, ptr %4, align 8, !tbaa !13
  %5 = load ptr, ptr %3, align 8
  %6 = getelementptr inbounds nuw %"struct.std::_Vector_base.25", ptr %5, i32 0, i32 0
  %7 = getelementptr inbounds nuw %"struct.std::_Vector_base<net::QuicVersion, std::allocator<net::QuicVersion>>::_Vector_impl_data", ptr %6, i32 0, i32 0
  %8 = load ptr, ptr %7, align 8, !tbaa !98
  %9 = load i64, ptr %4, align 8, !tbaa !13
  %10 = getelementptr inbounds nuw i32, ptr %8, i64 %9
  ret ptr %10
}

; Function Attrs: mustprogress nounwind uwtable
define linkonce_odr noundef i64 @_ZNKSt6vectorIN3net11QuicVersionESaIS1_EE4sizeEv(ptr noundef nonnull align 8 dereferenceable(24) %0) #3 comdat align 2 {
  %2 = alloca ptr, align 8
  store ptr %0, ptr %2, align 8, !tbaa !71
  %3 = load ptr, ptr %2, align 8
  %4 = getelementptr inbounds nuw %"struct.std::_Vector_base.25", ptr %3, i32 0, i32 0
  %5 = getelementptr inbounds nuw %"struct.std::_Vector_base<net::QuicVersion, std::allocator<net::QuicVersion>>::_Vector_impl_data", ptr %4, i32 0, i32 1
  %6 = load ptr, ptr %5, align 8, !tbaa !96
  %7 = getelementptr inbounds nuw %"struct.std::_Vector_base.25", ptr %3, i32 0, i32 0
  %8 = getelementptr inbounds nuw %"struct.std::_Vector_base<net::QuicVersion, std::allocator<net::QuicVersion>>::_Vector_impl_data", ptr %7, i32 0, i32 0
  %9 = load ptr, ptr %8, align 8, !tbaa !98
  %10 = ptrtoint ptr %6 to i64
  %11 = ptrtoint ptr %9 to i64
  %12 = sub i64 %10, %11
  %13 = sdiv exact i64 %12, 4
  ret i64 %13
}

; Function Attrs: mustprogress uwtable
define available_externally noundef nonnull align 8 dereferenceable(32) ptr @_ZNSt7__cxx1112basic_stringIcSt11char_traitsIcESaIcEEaSEPKc(ptr noundef nonnull align 8 dereferenceable(32) %0, ptr noundef %1) #0 align 2 {
  %3 = alloca ptr, align 8
  %4 = alloca ptr, align 8
  store ptr %0, ptr %3, align 8, !tbaa !8
  store ptr %1, ptr %4, align 8, !tbaa !30
  %5 = load ptr, ptr %3, align 8
  %6 = load ptr, ptr %4, align 8, !tbaa !30
  %7 = call noundef nonnull align 8 dereferenceable(32) ptr @_ZNSt7__cxx1112basic_stringIcSt11char_traitsIcESaIcEE6assignEPKc(ptr noundef nonnull align 8 dereferenceable(32) %5, ptr noundef %6)
  ret ptr %7
}

; Function Attrs: mustprogress nounwind uwtable
define linkonce_odr noundef i32 @_ZNK3net22CryptoHandshakeMessage3tagEv(ptr noundef nonnull align 8 dereferenceable(72) %0) #3 comdat align 2 {
  %2 = alloca ptr, align 8
  store ptr %0, ptr %2, align 8, !tbaa !69
  %3 = load ptr, ptr %2, align 8
  %4 = getelementptr inbounds nuw %"class.net::CryptoHandshakeMessage", ptr %3, i32 0, i32 0
  %5 = load i32, ptr %4, align 8, !tbaa !78
  ret i32 %5
}

; Function Attrs: mustprogress uwtable
define noundef i32 @_ZN3net11CryptoUtils19ValidateClientHelloERKNS_22CryptoHandshakeMessageENS_11QuicVersionERKSt6vectorIS4_SaIS4_EEPNSt7__cxx1112basic_stringIcSt11char_traitsIcESaIcEEE(ptr noundef nonnull align 8 dereferenceable(72) %0, i32 noundef %1, ptr noundef nonnull align 8 dereferenceable(24) %2, ptr noundef %3) #0 align 2 {
  %5 = alloca i32, align 4
  %6 = alloca ptr, align 8
  %7 = alloca i32, align 4
  %8 = alloca ptr, align 8
  %9 = alloca ptr, align 8
  %10 = alloca i32, align 4
  %11 = alloca i32, align 4
  %12 = alloca i32, align 4
  %13 = alloca i64, align 8
  store ptr %0, ptr %6, align 8, !tbaa !69
  store i32 %1, ptr %7, align 4, !tbaa !75
  store ptr %2, ptr %8, align 8, !tbaa !71
  store ptr %3, ptr %9, align 8, !tbaa !8
  %14 = load ptr, ptr %6, align 8, !tbaa !69
  %15 = call noundef i32 @_ZNK3net22CryptoHandshakeMessage3tagEv(ptr noundef nonnull align 8 dereferenceable(72) %14)
  %16 = icmp ne i32 %15, 1330399299
  br i1 %16, label %17, label %20

17:                                               ; preds = %4
  %18 = load ptr, ptr %9, align 8, !tbaa !8
  %19 = call noundef nonnull align 8 dereferenceable(32) ptr @_ZNSt7__cxx1112basic_stringIcSt11char_traitsIcESaIcEEaSEPKc(ptr noundef nonnull align 8 dereferenceable(32) %18, ptr noundef @.str.5)
  store i32 33, ptr %5, align 4
  br label %60

20:                                               ; preds = %4
  call void @llvm.lifetime.start.p0(i64 4, ptr %10) #13
  %21 = load ptr, ptr %6, align 8, !tbaa !69
  %22 = call noundef i32 @_ZNK3net22CryptoHandshakeMessage9GetUint32EjPj(ptr noundef nonnull align 8 dereferenceable(72) %21, i32 noundef 5391702, ptr noundef %10)
  %23 = icmp ne i32 %22, 0
  br i1 %23, label %24, label %27

24:                                               ; preds = %20
  %25 = load ptr, ptr %9, align 8, !tbaa !8
  %26 = call noundef nonnull align 8 dereferenceable(32) ptr @_ZNSt7__cxx1112basic_stringIcSt11char_traitsIcESaIcEEaSEPKc(ptr noundef nonnull align 8 dereferenceable(32) %25, ptr noundef @.str.8)
  store i32 34, ptr %5, align 4
  store i32 1, ptr %11, align 4
  br label %59

27:                                               ; preds = %20
  call void @llvm.lifetime.start.p0(i64 4, ptr %12) #13
  %28 = load i32, ptr %10, align 4, !tbaa !10
  %29 = call noundef i32 @_ZN3net20QuicTagToQuicVersionEj(i32 noundef %28)
  store i32 %29, ptr %12, align 4, !tbaa !75
  %30 = load i32, ptr %12, align 4, !tbaa !75
  %31 = load i32, ptr %7, align 4, !tbaa !75
  %32 = icmp ne i32 %30, %31
  br i1 %32, label %33, label %57

33:                                               ; preds = %27
  call void @llvm.lifetime.start.p0(i64 8, ptr %13) #13
  store i64 0, ptr %13, align 8, !tbaa !13
  br label %34

34:                                               ; preds = %51, %33
  %35 = load i64, ptr %13, align 8, !tbaa !13
  %36 = load ptr, ptr %8, align 8, !tbaa !71
  %37 = call noundef i64 @_ZNKSt6vectorIN3net11QuicVersionESaIS1_EE4sizeEv(ptr noundef nonnull align 8 dereferenceable(24) %36) #13
  %38 = icmp ult i64 %35, %37
  br i1 %38, label %40, label %39

39:                                               ; preds = %34
  store i32 2, ptr %11, align 4
  br label %54

40:                                               ; preds = %34
  %41 = load i32, ptr %12, align 4, !tbaa !75
  %42 = load ptr, ptr %8, align 8, !tbaa !71
  %43 = load i64, ptr %13, align 8, !tbaa !13
  %44 = call noundef nonnull align 4 dereferenceable(4) ptr @_ZNKSt6vectorIN3net11QuicVersionESaIS1_EEixEm(ptr noundef nonnull align 8 dereferenceable(24) %42, i64 noundef %43) #13
  %45 = load i32, ptr %44, align 4, !tbaa !75
  %46 = icmp eq i32 %41, %45
  br i1 %46, label %47, label %50

47:                                               ; preds = %40
  %48 = load ptr, ptr %9, align 8, !tbaa !8
  %49 = call noundef nonnull align 8 dereferenceable(32) ptr @_ZNSt7__cxx1112basic_stringIcSt11char_traitsIcESaIcEEaSEPKc(ptr noundef nonnull align 8 dereferenceable(32) %48, ptr noundef @.str.7)
  store i32 55, ptr %5, align 4
  store i32 1, ptr %11, align 4
  br label %54

50:                                               ; preds = %40
  br label %51

51:                                               ; preds = %50
  %52 = load i64, ptr %13, align 8, !tbaa !13
  %53 = add i64 %52, 1
  store i64 %53, ptr %13, align 8, !tbaa !13
  br label %34, !llvm.loop !99

54:                                               ; preds = %47, %39
  call void @llvm.lifetime.end.p0(i64 8, ptr %13) #13
  %55 = load i32, ptr %11, align 4
  switch i32 %55, label %58 [
    i32 2, label %56
  ]

56:                                               ; preds = %54
  br label %57

57:                                               ; preds = %56, %27
  store i32 0, ptr %5, align 4
  store i32 1, ptr %11, align 4
  br label %58

58:                                               ; preds = %57, %54
  call void @llvm.lifetime.end.p0(i64 4, ptr %12) #13
  br label %59

59:                                               ; preds = %58, %24
  call void @llvm.lifetime.end.p0(i64 4, ptr %10) #13
  br label %60

60:                                               ; preds = %59, %17
  %61 = load i32, ptr %5, align 4
  ret i32 %61
}