; Function Attrs: mustprogress uwtable
define noundef range(i32 0, 56) i32 @_ZN3net11CryptoUtils19ValidateClientHelloERKNS_22CryptoHandshakeMessageENS_11QuicVersionERKSt6vectorIS4_SaIS4_EEPNSt7__cxx1112basic_stringIcSt11char_traitsIcESaIcEEE(ptr noundef nonnull align 8 dereferenceable(72) %0, i32 noundef %1, ptr noundef nonnull readonly align 8 captures(none) dereferenceable(24) %2, ptr noundef %3) local_unnamed_addr #0 align 2 {
  %5 = alloca i32, align 4
  %6 = load i32, ptr %0, align 8, !tbaa !57
  %.not = icmp eq i32 %6, 1330399299
  br i1 %.not, label %11, label %7

7:                                                ; preds = %4
  %8 = getelementptr inbounds nuw i8, ptr %3, i64 8
  %9 = load i64, ptr %8, align 8, !tbaa !26
  %10 = tail call noundef nonnull align 8 dereferenceable(32) ptr @_ZNSt7__cxx1112basic_stringIcSt11char_traitsIcESaIcEE10_M_replaceEmmPKcm(ptr noundef nonnull align 8 dereferenceable(32) %3, i64 noundef 0, i64 noundef %9, ptr noundef nonnull @.str.5, i64 noundef 7)
  br label %36

11:                                               ; preds = %4
  call void @llvm.lifetime.start.p0(i64 4, ptr nonnull %5) #13
  %12 = call noundef i32 @_ZNK3net22CryptoHandshakeMessage9GetUint32EjPj(ptr noundef nonnull align 8 dereferenceable(72) %0, i32 noundef 5391702, ptr noundef nonnull %5)
  %.not17 = icmp eq i32 %12, 0
  br i1 %.not17, label %17, label %13

13:                                               ; preds = %11
  %14 = getelementptr inbounds nuw i8, ptr %3, i64 8
  %15 = load i64, ptr %14, align 8, !tbaa !26
  %16 = call noundef nonnull align 8 dereferenceable(32) ptr @_ZNSt7__cxx1112basic_stringIcSt11char_traitsIcESaIcEE10_M_replaceEmmPKcm(ptr noundef nonnull align 8 dereferenceable(32) %3, i64 noundef 0, i64 noundef %15, ptr noundef nonnull @.str.8, i64 noundef 33)
  br label %.critedge

17:                                               ; preds = %11
  %18 = load i32, ptr %5, align 4, !tbaa !53
  %19 = call noundef i32 @_ZN3net20QuicTagToQuicVersionEj(i32 noundef %18)
  %.not18 = icmp eq i32 %19, %1
  br i1 %.not18, label %.critedge, label %.preheader

.preheader:                                       ; preds = %17
  %20 = getelementptr inbounds nuw i8, ptr %2, i64 8
  %21 = load ptr, ptr %20, align 8, !tbaa !83
  %22 = load ptr, ptr %2, align 8, !tbaa !78
  %.not1920.not = icmp eq ptr %21, %22
  br i1 %.not1920.not, label %.critedge, label %.lr.ph.preheader

.lr.ph.preheader:                                 ; preds = %.preheader
  %23 = ptrtoint ptr %21 to i64
  %24 = ptrtoint ptr %22 to i64
  %25 = sub i64 %23, %24
  %26 = ashr exact i64 %25, 2
  %umax = call i64 @llvm.umax.i64(i64 %26, i64 1)
  br label %.lr.ph

27:                                               ; preds = %.lr.ph
  %28 = add nuw i64 %.021, 1
  %exitcond.not = icmp eq i64 %28, %umax
  br i1 %exitcond.not, label %.critedge, label %.lr.ph, !llvm.loop !84

.lr.ph:                                           ; preds = %.lr.ph.preheader, %27
  %.021 = phi i64 [ %28, %27 ], [ 0, %.lr.ph.preheader ]
  %29 = getelementptr inbounds nuw i32, ptr %22, i64 %.021
  %30 = load i32, ptr %29, align 4, !tbaa !80
  %31 = icmp eq i32 %19, %30
  br i1 %31, label %32, label %27

32:                                               ; preds = %.lr.ph
  %33 = getelementptr inbounds nuw i8, ptr %3, i64 8
  %34 = load i64, ptr %33, align 8, !tbaa !26
  %35 = call noundef nonnull align 8 dereferenceable(32) ptr @_ZNSt7__cxx1112basic_stringIcSt11char_traitsIcESaIcEE10_M_replaceEmmPKcm(ptr noundef nonnull align 8 dereferenceable(32) %3, i64 noundef 0, i64 noundef %34, ptr noundef nonnull @.str.7, i64 noundef 25)
  br label %.critedge

.critedge:                                        ; preds = %27, %.preheader, %17, %32, %13
  %.1 = phi i32 [ 34, %13 ], [ 55, %32 ], [ 0, %17 ], [ 0, %.preheader ], [ 0, %27 ]
  call void @llvm.lifetime.end.p0(i64 4, ptr nonnull %5) #13
  br label %36

36:                                               ; preds = %.critedge, %7
  %.014 = phi i32 [ 33, %7 ], [ %.1, %.critedge ]
  ret i32 %.014
}